(lp0
(lp1
(lp2
F0.04961243997888669
aF0.48959644716006595
aa(lp3
F0.178213106766264
aF0.4893549129128003
aa(lp4
F0.17847422487141604
aF0.3153001119710825
aa(lp5
F0.3335783793317249
aF0.3155644940525489
aa(lp6
F0.33386234527107767
aF0.48959644716006595
aa(lp7
F0.46217904611910227
aF0.4890709469734476
aa(lp8
F0.46217904611910227
aF0.00022847834200811985
aa(lp9
F0.3335783793317249
aF1.3055905257648166e-05
aa(lp10
F0.33331726122657285
aF0.18669944518370515
aa(lp11
F0.17921188351847045
aF0.18669944518370515
aa(lp12
F0.178213106766264
aF0.18643506310223876
aa(lp13
F0.17770066248490285
aF0.0
aa(lp14
F0.050121620283933
aF0.0
aa(lp15
F0.04961243997888669
aF0.48959644716006595
aaa(lp16
(lp17
F0.5612407272611556
aF0.0
aa(lp18
F0.5612407272611556
aF0.48927331350494024
aa(lp19
F0.8654433197632765
aF0.4893105228349246
aa(lp20
F0.8654433197632765
aF0.38358249646833964
aa(lp21
F0.6898413940485328
aF0.38259612282612787
aa(lp22
F0.6898413940485328
aF0.3038624861701606
aa(lp23
F0.8447464459536635
aF0.30354979723924086
aa(lp24
F0.8452066666139938
aF0.302885251661629
aa(lp25
F0.8449285758320069
aF0.1951857836011463
aa(lp26
F0.6898413940485328
aF0.19505522454857
aa(lp27
F0.6898675058590482
aF0.10510003732369416
aa(lp28
F0.8653310389780615
aF0.10510003732369416
aa(lp29
F0.8654433197632765
aF0.0006090579802668575
aa(lp30
F0.5612407272611556
aF0.0
aaa(lp31
(lp32
F0.9646681997210499
aF0.0
aa(lp33
F0.9646681997210499
aF0.4893823303138413
aa(lp34
F1.0931552801326863
aF0.48959644716006595
aa(lp35
F1.093493428078858
aF0.12925346205025742
aa(lp36
F1.2695235874860509
aF0.1289153141040854
aa(lp37
F1.2695235874860509
aF0.0002141168462243925
aa(lp38
F0.9646681997210499
aF0.0
aaa(lp39
(lp40
F1.3687484674438242
aF0.0
aa(lp41
F1.3687484674438242
aF0.4893823303138413
aa(lp42
F1.4972355478554604
aF0.48959644716006595
aa(lp43
F1.4975736958016324
aF0.12925346205025742
aa(lp44
F1.6736038552088255
aF0.1289153141040854
aa(lp45
F1.6736038552088255
aF0.0002141168462243925
aa(lp46
F1.3687484674438242
aF0.0
aaa(lp47
(lp48
F1.8059580947577634
aF0.24414542831715288
aa(lp49
F1.8071162647525987
aF0.26816874779414734
aa(lp50
F1.8106701088981563
aF0.2923130542825693
aa(lp51
F1.8165025845812557
aF0.3156456614719318
aa(lp52
F1.824495341807673
aF0.33804449180913776
aa(lp53
F1.8345300305831846
aF0.3593874677410902
aa(lp54
F1.8469047430820293
aF0.380182008373061
aa(lp55
F1.8611989641662554
aF0.3995871189977899
aa(lp56
F1.8772825171848369
aF0.41746852291224984
aa(lp57
F1.8950252254867472
aF0.4336919434134139
aa(lp58
F1.9142969124209606
aF0.4481231037982551
aa(lp59
F1.9349674013364508
aF0.4606277273637465
aa(lp60
F1.9562030085432656
aF0.4707776961315248
aa(lp61
F1.9785108408948904
aF0.47887156215577265
aa(lp62
F2.0017725483971023
aF0.48478724788339317
aa(lp63
F2.025869781055677
aF0.4884026757612894
aa(lp64
F2.049873741572915
aF0.48959634081692455
aa(lp65
F2.073869498636916
aF0.48844920155940946
aa(lp66
F2.0979748738246027
aF0.48488488928145357
aa(lp67
F2.121260393059014
aF0.47902300053600444
aa(lp68
F2.1436062483035894
aF0.47098520084856177
aa(lp69
F2.1648926315217674
aF0.4608931557446257
aa(lp70
F2.1856273654285783
aF0.44844983568643937
aa(lp71
F2.2049737291544416
aF0.43408106565611004
aa(lp72
F2.2227999423045395
aF0.41792066915535286
aa(lp73
F2.2389742244840543
aF0.4001024696858822
aa(lp74
F2.2533647952981664
aF0.3807602907494132
aa(lp75
F2.2658398743520576
aF0.3600279558476607
aa(lp76
F2.27626768125091
aF0.33803928848233933
aa(lp77
F2.284292954768908
aF0.3156659981858736
aa(lp78
F2.2901534305038473
aF0.29236092506301187
aa(lp79
F2.2937293004191677
aF0.26824573463925405
aa(lp80
F2.2949017240397
aF0.24425171018517974
aa(lp81
F2.29374431384068
aF0.22021260033466836
aa(lp82
F2.2901725051986968
aF0.19607895765301425
aa(lp83
F2.2843052565336093
aF0.17278141183185494
aa(lp84
F2.276263190895912
aF0.15043871579687176
aa(lp85
F2.2661669313361017
aF0.12916962247374683
aa(lp86
F2.253718209667321
aF0.1084664393671756
aa(lp87
F2.239341835431323
aF0.08916439866021517
aa(lp88
F2.223170485480801
aF0.0713941202000925
aa(lp89
F2.205336836668451
aF0.05528622383403479
aa(lp90
F2.185973565846969
aF0.0409713294092688
aa(lp91
F2.165213349869049
aF0.02858005677302168
aa(lp92
F2.1438949496531676
aF0.018533666004848
aa(lp93
F2.1215106863160083
aF0.010533885791215286
aa(lp94
F2.0981811829080668
aF0.004699469057805253
aa(lp95
F2.074027062479838
aF0.0011491687302996286
aa(lp96
F2.0499804512034854
aF3.014481973911883e-08
aa(lp97
F2.0259200544964195
aF0.001175080323338358
aa(lp98
F2.0017674769368217
aF0.004756238223932765
aa(lp99
F1.978454244146569
aF0.010625261990220574
aa(lp100
F1.9560995131864418
aF0.018662994561421554
aa(lp101
F1.9348224411172206
aF0.02875027887675529
aa(lp102
F1.9141157049001758
aF0.04118642078397966
aa(lp103
F1.8948153083205375
aF0.05554844333504594
aa(lp104
F1.8770523157456531
aF0.07170528216260658
aa(lp105
F1.8609577915428703
aF0.08952587289931414
aa(lp106
F1.8466628000795362
aF0.10887915117782102
aa(lp107
F1.8342984057229987
aF0.12963405263077998
aa(lp108
F1.8242851245291065
aF0.15095328709057926
aa(lp109
F1.8163258213692879
aF0.1733457541513436
aa(lp110
F1.8105396533043232
aF0.1966922967522928
aa(lp111
F1.807121483346218
aF0.22008189860376534
aa(lp112
F1.8059580947577634
aF0.24414542831715288
aaa(lp113
(lp114
F2.166953875130452
aF0.24479822358003298
aa(lp115
F2.164702972140686
aF0.2677818568046982
aa(lp116
F2.1580991229066377
aF0.2895672776835623
aa(lp117
F2.147195882464946
aF0.3099124260922973
aa(lp118
F2.1326343539746992
aF0.3275875915193929
aa(lp119
F2.1149126649462393
aF0.34209464645450766
aa(lp120
F2.0948653768006276
aF0.3527968044925363
aa(lp121
F2.0730793300224843
aF0.3593992278892652
aa(lp122
F2.0500952917224327
aF0.3616485753473754
aa(lp123
F2.0272531464740684
aF0.35938214463706764
aa(lp124
F2.005570502372696
aF0.35273686759217354
aa(lp125
F1.9855981449362519
aF0.3419692357056373
aa(lp126
F1.9679341270359263
aF0.3273776420536425
aa(lp127
F1.95342456923514
aF0.3096044637273568
aa(lp128
F1.942719208472954
aF0.2894901501060198
aa(lp129
F1.9361249877773872
aF0.2676267073046044
aa(lp130
F1.9339060595838973
aF0.2449478343540892
aa(lp131
F1.9361449794738614
aF0.22205219165718174
aa(lp132
F1.9427643036870754
aF0.2002709142184563
aa(lp133
F1.9534988603749985
aF0.18016769701250326
aa(lp134
F1.96804072796879
aF0.1623564175602823
aa(lp135
F1.985738550007186
aF0.14770277657012776
aa(lp136
F2.005744493372827
aF0.13687589325432262
aa(lp137
F2.027459388747833
aF0.13019824197497362
aa(lp138
F2.0499468174207136
aF0.12794797728924762
aa(lp139
F2.072589289721715
aF0.13012539611664553
aa(lp140
F2.0944304982079487
aF0.13670812141126104
aa(lp141
F2.114840003731822
aF0.14762278548048902
aa(lp142
F2.132585262178187
aF0.16220405354109613
aa(lp143
F2.147166992559061
aF0.1799280898024123
aa(lp144
F2.1580859138864623
aF0.20027105847376742
aa(lp145
F2.1646995541746463
aF0.2219814248438662
aa(lp146
F2.166953875130452
aF0.24479822358003298
aaa(lp147
(lp148
F3.589884326778075
aF0.0
aa(lp149
F3.5085672819745453
aF0.17369320770033989
aa(lp150
F3.426847674728213
aF0.0
aa(lp151
F3.3343928496817488
aF0.0005387196030603023
aa(lp152
F3.1089226495383406
aF0.48927470257287564
aa(lp153
F3.2491659144919467
aF0.48959644716006595
aa(lp154
F3.2501698723557286
aF0.4887479953203284
aa(lp155
F3.3883055481243503
aF0.19025787439168143
aa(lp156
F3.4820641079122723
aF0.39363554351669305
aa(lp157
F3.535908512374325
aF0.3931856691560445
aa(lp158
F3.6293529129441815
aF0.19061177600761386
aa(lp159
F3.768025805569222
aF0.4894420939179133
aa(lp160
F3.908673299330182
aF0.48959644716006595
aa(lp161
F3.6826243579717937
aF9.316397279466144e-05
aa(lp162
F3.589884326778075
aF0.0
aaa(lp163
(lp164
F4.083963594726315
aF0.24414542831715288
aa(lp165
F4.08512176472115
aF0.26816874779414734
aa(lp166
F4.088675608866708
aF0.2923130542825693
aa(lp167
F4.094508084549807
aF0.3156456614719318
aa(lp168
F4.102500841776225
aF0.33804449180913776
aa(lp169
F4.112535530551736
aF0.3593874677410902
aa(lp170
F4.12491024305058
aF0.380182008373061
aa(lp171
F4.139204464134807
aF0.3995871189977899
aa(lp172
F4.155288017153389
aF0.41746852291224984
aa(lp173
F4.173030725455298
aF0.4336919434134139
aa(lp174
F4.1923024123895125
aF0.4481231037982551
aa(lp175
F4.212972901305003
aF0.4606277273637465
aa(lp176
F4.234208508511817
aF0.4707776961315248
aa(lp177
F4.256516340863442
aF0.47887156215577265
aa(lp178
F4.279778048365654
aF0.48478724788339317
aa(lp179
F4.3038752810242284
aF0.4884026757612894
aa(lp180
F4.327879241541467
aF0.48959634081692455
aa(lp181
F4.351874998605467
aF0.48844920155940946
aa(lp182
F4.375980373793154
aF0.48488488928145357
aa(lp183
F4.399265893027565
aF0.47902300053600444
aa(lp184
F4.4216117482721415
aF0.47098520084856177
aa(lp185
F4.442898131490319
aF0.4608931557446257
aa(lp186
F4.46363286539713
aF0.44844983568643937
aa(lp187
F4.482979229122993
aF0.43408106565611004
aa(lp188
F4.500805442273091
aF0.41792066915535286
aa(lp189
F4.5169797244526055
aF0.4001024696858822
aa(lp190
F4.531370295266718
aF0.3807602907494132
aa(lp191
F4.543845374320609
aF0.3600279558476607
aa(lp192
F4.554273181219462
aF0.33803928848233933
aa(lp193
F4.562298454737459
aF0.3156659981858736
aa(lp194
F4.568158930472399
aF0.29236092506301187
aa(lp195
F4.57173480038772
aF0.26824573463925405
aa(lp196
F4.572907224008252
aF0.24425171018517974
aa(lp197
F4.571749813809231
aF0.22021260033466836
aa(lp198
F4.5681780051672485
aF0.19607895765301425
aa(lp199
F4.562310756502161
aF0.17278141183185494
aa(lp200
F4.554268690864464
aF0.15043871579687176
aa(lp201
F4.544172431304653
aF0.12916962247374683
aa(lp202
F4.531723709635873
aF0.1084664393671756
aa(lp203
F4.517347335399874
aF0.08916439866021517
aa(lp204
F4.501175985449352
aF0.0713941202000925
aa(lp205
F4.483342336637003
aF0.05528622383403479
aa(lp206
F4.46397906581552
aF0.0409713294092688
aa(lp207
F4.4432188498376
aF0.02858005677302168
aa(lp208
F4.421900449621719
aF0.018533666004848
aa(lp209
F4.3995161862845595
aF0.010533885791215286
aa(lp210
F4.376186682876618
aF0.004699469057805253
aa(lp211
F4.3520325624483895
aF0.0011491687302996286
aa(lp212
F4.327985951172037
aF3.014481973911883e-08
aa(lp213
F4.303925554464971
aF0.001175080323338358
aa(lp214
F4.279772976905373
aF0.004756238223932765
aa(lp215
F4.25645974411512
aF0.010625261990220574
aa(lp216
F4.234105013154993
aF0.018662994561421554
aa(lp217
F4.212827941085772
aF0.02875027887675529
aa(lp218
F4.1921212048687275
aF0.04118642078397966
aa(lp219
F4.172820808289089
aF0.05554844333504594
aa(lp220
F4.155057815714205
aF0.07170528216260658
aa(lp221
F4.138963291511422
aF0.08952587289931414
aa(lp222
F4.1246683000480875
aF0.10887915117782102
aa(lp223
F4.11230390569155
aF0.12963405263077998
aa(lp224
F4.102290624497658
aF0.15095328709057926
aa(lp225
F4.094331321337839
aF0.1733457541513436
aa(lp226
F4.088545153272874
aF0.1966922967522928
aa(lp227
F4.08512698331477
aF0.22008189860376534
aa(lp228
F4.083963594726315
aF0.24414542831715288
aaa(lp229
(lp230
F4.444959375099003
aF0.24479822358003298
aa(lp231
F4.442708472109238
aF0.2677818568046982
aa(lp232
F4.436104622875189
aF0.2895672776835623
aa(lp233
F4.425201382433498
aF0.3099124260922973
aa(lp234
F4.410639853943251
aF0.3275875915193929
aa(lp235
F4.392918164914791
aF0.34209464645450766
aa(lp236
F4.372870876769179
aF0.3527968044925363
aa(lp237
F4.351084829991036
aF0.3593992278892652
aa(lp238
F4.328100791690984
aF0.3616485753473754
aa(lp239
F4.30525864644262
aF0.35938214463706764
aa(lp240
F4.283576002341247
aF0.35273686759217354
aa(lp241
F4.263603644904803
aF0.3419692357056373
aa(lp242
F4.245939627004478
aF0.3273776420536425
aa(lp243
F4.231430069203691
aF0.3096044637273568
aa(lp244
F4.220724708441505
aF0.2894901501060198
aa(lp245
F4.214130487745939
aF0.2676267073046044
aa(lp246
F4.211911559552449
aF0.2449478343540892
aa(lp247
F4.214150479442413
aF0.22205219165718174
aa(lp248
F4.220769803655627
aF0.2002709142184563
aa(lp249
F4.23150436034355
aF0.18016769701250326
aa(lp250
F4.246046227937342
aF0.1623564175602823
aa(lp251
F4.263744049975737
aF0.14770277657012776
aa(lp252
F4.283749993341378
aF0.13687589325432262
aa(lp253
F4.305464888716385
aF0.13019824197497362
aa(lp254
F4.327952317389265
aF0.12794797728924762
aa(lp255
F4.350594789690266
aF0.13012539611664553
aa(lp256
F4.372435998176501
aF0.13670812141126104
aa(lp257
F4.392845503700373
aF0.14762278548048902
aa(lp258
F4.410590762146739
aF0.16220405354109613
aa(lp259
F4.425172492527612
aF0.1799280898024123
aa(lp260
F4.436091413855014
aF0.20027105847376742
aa(lp261
F4.442705054143198
aF0.2219814248438662
aa(lp262
F4.444959375099003
aF0.24479822358003298
aaa(lp263
(lp264
F5.1387175181095675
aF0.0
aa(lp265
F4.991009497011606
aF0.0
aa(lp266
F4.914899325320308
aF0.12975086168086655
aa(lp267
F4.9140038921142795
aF0.12990625731313749
aa(lp268
F4.835226280862033
aF0.12990625731313749
aa(lp269
F4.835149479608964
aF0.0
aa(lp270
F4.706567054082949
aF0.00041591289953937305
aa(lp271
F4.706792429727004
aF0.48959644716006595
aa(lp272
F4.912598939123498
aF0.48959644716006595
aa(lp273
F4.938040001920709
aF0.4878353278256494
aa(lp274
F4.963368025328436
aF0.4823669543533481
aa(lp275
F4.987254205346653
aF0.47346531027490796
aa(lp276
F5.009419917738596
aF0.46140901982709126
aa(lp277
F5.030318473995378
aF0.4458487330094943
aa(lp278
F5.048749179317694
aF0.4274989626547244
aa(lp279
F5.064400008167752
aF0.40667173430057246
aa(lp280
F5.076552567167713
aF0.38456562810879436
aa(lp281
F5.086383569178569
aF0.35788125628409223
aa(lp282
F5.091799468759212
aF0.33043819531170254
aa(lp283
F5.092897878045961
aF0.302769473847939
aa(lp284
F5.089563528130172
aF0.27453215797653735
aa(lp285
F5.081983520535728
aF0.2478121576987258
aa(lp286
F5.070086973039945
aF0.22211367745477859
aa(lp287
F5.054516297799343
aF0.19881300859545173
aa(lp288
F5.035019020194395
aF0.17764921693021496
aa(lp289
F5.1387175181095675
aF0.0
aaa(lp290
(lp291
F4.835167720870327
aF0.38123243352197134
aa(lp292
F4.835204623433877
aF0.24088145200275243
aa(lp293
F4.919309558544999
aF0.2410174122111267
aa(lp294
F4.932537391021756
aF0.24305201603612742
aa(lp295
F4.945271942856855
aF0.2475733495322525
aa(lp296
F4.953984441638953
aF0.2524280684807943
aa(lp297
F4.9618563492180305
aF0.25842222885559013
aa(lp298
F4.968777910869772
aF0.2654521734170086
aa(lp299
F4.974639371869862
aF0.27341424492541866
aa(lp300
F4.979226195795032
aF0.28196989076092605
aa(lp301
F4.982600861110221
aF0.2912161790547799
aa(lp302
F4.984625291011543
aF0.30079143704204836
aa(lp303
F4.9853105474025075
aF0.31084156689588965
aa(lp304
F4.984600694353686
aF0.3208586793630227
aa(lp305
F4.98249116279266
aF0.3306784861621581
aa(lp306
F4.97908219261898
aF0.3399245527521373
aa(lp307
F4.974337582793139
aF0.3487120980959909
aa(lp308
F4.968438408460128
aF0.3566811435509115
aa(lp309
F4.961493143054835
aF0.3637232156820123
aa(lp310
F4.953610260012145
aF0.369729841054406
aa(lp311
F4.944898232766948
aF0.37459254623320576
aa(lp312
F4.932434966084082
aF0.3790449750599767
aa(lp313
F4.919253642112328
aF0.38109706792004977
aa(lp314
F4.835167720870327
aF0.38123243352197134
aaa(lp315
(lp316
F5.23794239806734
aF0.0
aa(lp317
F5.23794239806734
aF0.4893823303138413
aa(lp318
F5.3664294784789766
aF0.48959644716006595
aa(lp319
F5.3667676264251485
aF0.12925346205025742
aa(lp320
F5.542797785832342
aF0.1289153141040854
aa(lp321
F5.542797785832342
aF0.0002141168462243925
aa(lp322
F5.23794239806734
aF0.0
aaa(lp323
(lp324
F5.671561651435439
aF0.0
aa(lp325
F5.671704796259476
aF0.48959644716006595
aa(lp326
F5.855053470375722
aF0.4895883156316682
aa(lp327
F5.879485021072303
aF0.48818236527273073
aa(lp328
F5.904025183987286
aF0.4842718038952073
aa(lp329
F5.9284649849766184
aF0.47774120038700973
aa(lp330
F5.95183178183392
aF0.4688196737758234
aa(lp331
F5.974677273440959
aF0.45725209000567024
aa(lp332
F6.00117844315571
aF0.43965782098876416
aa(lp333
F6.0256754355349385
aF0.41830512484902116
aa(lp334
F6.047149023207565
aF0.3939166641317303
aa(lp335
F6.06487314654027
aF0.36750946760832076
aa(lp336
F6.0791057267858175
aF0.3388266096184471
aa(lp337
F6.089543641493886
aF0.3081712126124292
aa(lp338
F6.095777638921286
aF0.2766724333102441
aa(lp339
F6.097836946699719
aF0.2447227762057052
aa(lp340
F6.095758617370855
aF0.21277827337428826
aa(lp341
F6.089506353307798
aF0.18128604489769082
aa(lp342
F6.079051024709776
aF0.15063868780812456
aa(lp343
F6.064802368418303
aF0.12196520757873013
aa(lp344
F6.047063506883699
aF0.09556872665982738
aa(lp345
F6.025576200985382
aF0.0711926378684107
aa(lp346
F6.001066895952844
aF0.04985371922692308
aa(lp347
F5.974555068460478
aF0.03227424623880787
aa(lp348
F5.951702013879047
aF0.020719462539387033
aa(lp349
F5.928328706893237
aF0.01181115249965548
aa(lp350
F5.903883199317964
aF0.005294569105481885
aa(lp351
F5.879338278980012
aF0.0013983406597931074
aa(lp352
F5.854902844769707
aF6.96079677396839e-06
aa(lp353
F5.671561651435439
aF0.0
aaa(lp354
(lp355
F5.799509522959937
aF0.35969018984692847
aa(lp356
F5.7995323404676915
aF0.12794787152449724
aa(lp357
F5.856366017164212
aF0.12797834472369735
aa(lp358
F5.872999260544586
aF0.12955867529782772
aa(lp359
F5.885159824415649
aF0.13229352356585217
aa(lp360
F5.89680972226869
aF0.1362699420298933
aa(lp361
F5.9081808302358665
aF0.14157637559005024
aa(lp362
F5.918850929704639
aF0.1480355950464112
aa(lp363
F5.930045307828583
aF0.15669213023329454
aa(lp364
F5.940334457049974
aF0.16687471972252232
aa(lp365
F5.94910555924812
aF0.17797561966636297
aa(lp366
F5.956497553916934
aF0.19010190928560522
aa(lp367
F5.962265106288378
aF0.20280552899219054
aa(lp368
F5.966493603280847
aF0.21625872837487253
aa(lp369
F5.969027817855306
aF0.22999055421875006
aa(lp370
F5.969889059448712
aF0.2442244662918276
aa(lp371
F5.969003291608607
aF0.25836138193983044
aa(lp372
F5.9664354209785175
aF0.27201161195995377
aa(lp373
F5.962163955349103
aF0.28539491599599176
aa(lp374
F5.956345934274213
aF0.2980397458420418
aa(lp375
F5.948895540394064
aF0.3101142813570617
aa(lp376
F5.940060425827426
aF0.3211689552473525
aa(lp377
F5.929962137417078
aF0.3310802602371885
aa(lp378
F5.918722222005798
aF0.33972468905084396
aa(lp379
F5.9080078886487195
aF0.3461726748005582
aa(lp380
F5.896915344147893
aF0.3513344426130345
aa(lp381
F5.88523281997044
aF0.3553271319998021
aa(lp382
F5.873035929077348
aF0.3580739104359887
aa(lp383
F5.856350512674748
aF0.3596600709860703
aa(lp384
F5.799509522959937
aF0.35969018984692847
aaa(lp385
(lp386
F6.142879819838445
aF0.051570825767526945
aa(lp387
F6.143864004427353
aF0.06179048738171879
aa(lp388
F6.146816211024717
aF0.07164862707144445
aa(lp389
F6.151623509755033
aF0.08071681781665295
aa(lp390
F6.158042522958761
aF0.08860416179857478
aa(lp391
F6.16586139192278
aF0.09508250348000064
aa(lp392
F6.174868257933966
aF0.09992368732372105
aa(lp393
F6.18452662235451
aF0.10283706294088071
aa(lp394
F6.194564178848469
aF0.1037943243839468
aa(lp395
F6.2047505422143425
aF0.10276196907949955
aa(lp396
F6.21437807689226
aF0.09977931000803333
aa(lp397
F6.223214080939465
aF0.09496450875764402
aa(lp398
F6.231006188174257
aF0.08845476765197723
aa(lp399
F6.237394065259415
aF0.08054073512664757
aa(lp400
F6.242165853481814
aF0.07145056671886442
aa(lp401
F6.245047472729001
aF0.061738193049668294
aa(lp402
F6.24602144289505
aF0.05151528609679544
aa(lp403
F6.245016506470515
aF0.041272527858190626
aa(lp404
F6.242086070791249
aF0.0315954669687409
aa(lp405
F6.237337505295414
aF0.02272038195469273
aa(lp406
F6.230896079944639
aF0.014903531044601754
aa(lp407
F6.223038602450375
aF0.008509400167359443
aa(lp408
F6.214130038067186
aF0.0038139025935621696
aa(lp409
F6.204426337350022
aF0.0009420006112342244
aa(lp410
F6.194336502687032
aF1.2029722733957271e-07
aa(lp411
F6.184259799527749
aF0.0009837578021799972
aa(lp412
F6.174573836466726
aF0.0038947044781346843
aa(lp413
F6.1656875690754305
aF0.008625603254157784
aa(lp414
F6.157857153024549
aF0.015051286726487926
aa(lp415
F6.15144723437673
aF0.02289524497209338
aa(lp416
F6.146734024908053
aF0.03179267215310241
aa(lp417
F6.143842589464411
aF0.04148751515669635
aa(lp418
F6.142879819838445
aF0.051570825767526945
aaa(lp419
(lp420
F6.142879819838445
aF0.13055905257601758
aa(lp421
F6.142955544088939
aF0.48959644716006595
aa(lp422
F6.246021471373498
aF0.48959644716006595
aa(lp423
F6.245945747123004
aF0.13055905257601758
aa(lp424
F6.142879819838445
aF0.13055905257601758
aaa.