(lp0
(lp1
(lp2
F0.02834996570222096
aF0.2797693983771805
aa(lp3
F0.1018360610092937
aF0.2796313788073144
aa(lp4
F0.10198527135509486
aF0.18017149255490425
aa(lp5
F0.19061621676098564
aF0.1803225680300279
aa(lp6
F0.19077848301204436
aF0.2797693983771805
aa(lp7
F0.2641023120680584
aF0.2794691125562557
aa(lp8
F0.2641023120680584
aF0.00013055905257606848
aa(lp9
F0.19061621676098564
aF7.460517290084665e-06
aa(lp10
F0.19046700641518444
aF0.10668539724783149
aa(lp11
F0.1024067905819831
aF0.10668539724783149
aa(lp12
F0.1018360610092937
aF0.10653432177270786
aa(lp13
F0.10154323570565876
aF0.0
aa(lp14
F0.02864092587653314
aF0.0
aa(lp15
F0.02834996570222096
aF0.2797693983771805
aaa(lp16
(lp17
F0.3207089870063746
aF0.0
aa(lp18
F0.3207089870063746
aF0.27958475057425153
aa(lp19
F0.49453903986472936
aF0.2796060130485283
aa(lp20
F0.49453903986472936
aF0.21918999798190836
aa(lp21
F0.39419508231344735
aF0.21862635590064447
aa(lp22
F0.39419508231344735
aF0.1736357063829489
aa(lp23
F0.4827122548306648
aF0.1734570269938519
aa(lp24
F0.4829752380651393
aF0.17307728666378797
aa(lp25
F0.482816329046861
aF0.1115347334863693
aa(lp26
F0.39419508231344735
aF0.11146012831346855
aa(lp27
F0.3942100033480275
aF0.060057164184968086
aa(lp28
F0.4944748794160351
aF0.060057164184968086
aa(lp29
F0.49453903986472936
aF0.0003480331315810614
aa(lp30
F0.3207089870063746
aF0.0
aaa(lp31
(lp32
F0.5512389712691712
aF0.0
aa(lp33
F0.5512389712691712
aF0.27964704589362355
aa(lp34
F0.6246601600758206
aF0.2797693983771805
aa(lp35
F0.6248533874736331
aF0.07385912117157566
aa(lp36
F0.725442049992029
aF0.07366589377376309
aa(lp37
F0.725442049992029
aF0.00012235248355679568
aa(lp38
F0.5512389712691712
aF0.0
aaa(lp39
(lp40
F0.782141981396471
aF0.0
aa(lp41
F0.782141981396471
aF0.27964704589362355
aa(lp42
F0.8555631702031202
aF0.2797693983771805
aa(lp43
F0.8557563976009327
aF0.07385912117157566
aa(lp44
F0.9563450601193286
aF0.07366589377376309
aa(lp45
F0.9563450601193286
aF0.00012235248355679568
aa(lp46
F0.782141981396471
aF0.0
aaa(lp47
(lp48
F1.031976054147293
aF0.13951167332408734
aa(lp49
F1.0326378655729134
aF0.15323928445379845
aa(lp50
F1.034668633656089
aF0.167036031018611
aa(lp51
F1.0380014769035744
aF0.18036894941253243
aa(lp52
F1.0425687667472414
aF0.193168281033793
aa(lp53
F1.0483028746189624
aF0.20536426728062293
aa(lp54
F1.0553741389040165
aF0.2172468619274634
aa(lp55
F1.06354226523786
aF0.22833549657016566
aa(lp56
F1.0727328669627636
aF0.23855344166414275
aa(lp57
F1.0828715574209982
aF0.2478239676648079
aa(lp58
F1.0938839499548343
aF0.2560703450275743
aa(lp59
F1.1056956579065431
aF0.2632158442078551
aa(lp60
F1.1178302905961515
aF0.2690158263608713
aa(lp61
F1.1305776233685085
aF0.2736408926604415
aa(lp62
F1.1438700276554867
aF0.2770212845047961
aa(lp63
F1.157639874888958
aF0.27908724329216533
aa(lp64
F1.1713564237559513
aF0.2797693376096711
aa(lp65
F1.1850682849353802
aF0.27911382946251967
aa(lp66
F1.19884278504263
aF0.277077079589402
aa(lp67
F1.2121487960337223
aF0.2737274288777168
aa(lp68
F1.2249178561734795
aF0.2691344004848924
aa(lp69
F1.2370815037267242
aF0.2633675175683575
aa(lp70
F1.2489299231020445
aF0.25625704896367957
aa(lp71
F1.259984988088252
aF0.24804632323206285
aa(lp72
F1.2701713956025937
aF0.2388118109459159
aa(lp73
F1.2794138425623163
aF0.22862998267764695
aa(lp74
F1.287637025884666
aF0.21757730899966468
aa(lp75
F1.2947656424868899
aF0.20573026048437748
aa(lp76
F1.3007243892862341
aF0.19316530770419385
aa(lp77
F1.3053102598679471
aF0.18038057039192776
aa(lp78
F1.3086591031450554
aF0.16706338575029248
aa(lp79
F1.3107024573823813
aF0.1532832769367166
aa(lp80
F1.3113724137369713
aF0.1395724058201027
aa(lp81
F1.310711036480388
aF0.12583577161981047
aa(lp82
F1.3086700029706837
aF0.11204511865886528
aa(lp83
F1.3053172894477765
aF0.09873223533248852
aa(lp84
F1.3007218233690925
aF0.08596498045535529
aa(lp85
F1.2949525321920579
aF0.07381121284214104
aa(lp86
F1.2878389769527547
aF0.0619808224955289
aa(lp87
F1.2796239059607557
aF0.050951084948694374
aa(lp88
F1.2703831345604573
aF0.04079664011433857
aa(lp89
F1.2601924780962577
aF0.031592127905162734
aa(lp90
F1.2491277519125532
aF0.02341218823386788
aa(lp91
F1.237264771353742
aF0.016331461013155246
aa(lp92
F1.2250828283732385
aF0.01059066628848457
aa(lp93
F1.2122918207520046
aF0.0060193633092658775
aa(lp94
F1.1989606759474665
aF0.00268541089017443
aa(lp95
F1.1851583214170498
aF0.0006566678458855019
aa(lp96
F1.1714174006877056
aF1.7225611279496467e-08
aa(lp97
F1.1576686025693823
aF0.0006714744704790617
aa(lp98
F1.1438671296781835
aF0.0027178504136758657
aa(lp99
F1.1305452823694677
aF0.0060715782801260415
aa(lp100
F1.1177711503922523
aF0.010664568320812315
aa(lp101
F1.1056128234955545
aF0.01642873078671731
aa(lp102
F1.0937804028001001
aF0.023535097590845516
aa(lp103
F1.0827516047545926
aF0.03174196762002625
aa(lp104
F1.07260132328323
aF0.040974446950060896
aa(lp105
F1.0634044523102113
aF0.051157641656750935
aa(lp106
F1.0552358857597348
aF0.06221665781589772
aa(lp107
F1.048170517555999
aF0.07407660150330285
aa(lp108
F1.0424486425880606
aF0.0862590211946167
aa(lp109
F1.0379004693538787
aF0.09905471665791062
aa(lp110
F1.0345940876024702
aF0.1123955981441673
aa(lp111
F1.03264084762641
aF0.12576108491643734
aa(lp112
F1.031976054147293
aF0.13951167332408734
aaa(lp113
(lp114
F1.2382593572174008
aF0.13988469918859026
aa(lp115
F1.2369731269375346
aF0.15301820388839896
aa(lp116
F1.2331994988037929
aF0.16546701581917841
aa(lp117
F1.2269690756942546
aF0.17709281490988416
aa(lp118
F1.2186482022712566
aF0.18719290943965305
aa(lp119
F1.2085215228264221
aF0.1954826551168615
aa(lp120
F1.1970659296003583
aF0.201598173995735
aa(lp121
F1.1846167600128479
aF0.20537098736529436
aa(lp122
F1.17148302384139
aF0.20665632876992873
aa(lp123
F1.1584303694137532
aF0.20536122550689576
aa(lp124
F1.1460402870701116
aF0.20156392433838485
aa(lp125
F1.1346275113921438
aF0.1954109918317927
aa(lp126
F1.124533786877672
aF0.1870729383163671
aa(lp127
F1.1162426109915085
aF0.17691683641563244
aa(lp128
F1.110125261984545
aF0.16542294291772558
aa(lp129
F1.1063571358727924
aF0.1529295470312025
aa(lp130
F1.105089176905084
aF0.13997019105947953
aa(lp131
F1.106368559699349
aF0.1268869666612467
aa(lp132
F1.1101510306783287
aF0.11444052241054645
aa(lp133
F1.1162850630714276
aF0.10295296972143043
aa(lp134
F1.124594701696451
aF0.09277509574873272
aa(lp135
F1.1347077428612489
aF0.08440158661150156
aa(lp136
F1.1461397104987578
aF0.0782147961453272
aa(lp137
F1.1585482221416186
aF0.07439899541427063
aa(lp138
F1.1713981813832646
aF0.07311312987957005
aa(lp139
F1.184336736983837
aF0.07435736920951172
aa(lp140
F1.196817427547399
aF0.07811892652072058
aa(lp141
F1.2084800021324695
aF0.08435587741742229
aa(lp142
F1.2186201498161067
aF0.09268803059491207
aa(lp143
F1.2269525671766062
aF0.10281605131566415
aa(lp144
F1.233191950792264
aF0.1144406048421528
aa(lp145
F1.2369711738140834
aF0.12684652848220923
aa(lp146
F1.2382593572174008
aF0.13988469918859026
aaa(lp147
(lp148
F2.051362472444614
aF0.0
aa(lp149
F2.0048955896997396
aF0.09925326154305134
aa(lp150
F1.9581986712732637
aF0.0
aa(lp151
F1.9053673426752844
aF0.0003078397731773156
aa(lp152
F1.7765272283076226
aF0.2795855443273575
aa(lp153
F1.8566662368525402
aF0.2797693983771805
aa(lp154
F1.8572399270604159
aF0.27928456875447333
aa(lp155
F1.9361745989281993
aF0.10871878536667509
aa(lp156
F1.9897509188070122
aF0.22493459629525314
aa(lp157
F2.020519149928185
aF0.22467752523202542
aa(lp158
F2.0739159502538174
aF0.10892101486149362
aa(lp159
F2.1531576031824122
aF0.27968119652452184
aa(lp160
F2.233527599617246
aF0.2797693983771805
aa(lp161
F2.1043567759838817
aF5.3236555882663674e-05
aa(lp162
F2.051362472444614
aF0.0
aaa(lp163
(lp164
F2.333693482700751
aF0.13951167332408734
aa(lp165
F2.334355294126371
aF0.15323928445379845
aa(lp166
F2.336386062209547
aF0.167036031018611
aa(lp167
F2.3397189054570324
aF0.18036894941253243
aa(lp168
F2.3442861953006995
aF0.193168281033793
aa(lp169
F2.3500203031724203
aF0.20536426728062293
aa(lp170
F2.3570915674574744
aF0.2172468619274634
aa(lp171
F2.365259693791318
aF0.22833549657016566
aa(lp172
F2.3744502955162217
aF0.23855344166414275
aa(lp173
F2.3845889859744562
aF0.2478239676648079
aa(lp174
F2.3956013785082924
aF0.2560703450275743
aa(lp175
F2.407413086460001
aF0.2632158442078551
aa(lp176
F2.4195477191496093
aF0.2690158263608713
aa(lp177
F2.4322950519219666
aF0.2736408926604415
aa(lp178
F2.4455874562089446
aF0.2770212845047961
aa(lp179
F2.459357303442416
aF0.27908724329216533
aa(lp180
F2.473073852309409
aF0.2797693376096711
aa(lp181
F2.486785713488838
aF0.27911382946251967
aa(lp182
F2.5005602135960876
aF0.277077079589402
aa(lp183
F2.51386622458718
aF0.2737274288777168
aa(lp184
F2.5266352847269373
aF0.2691344004848924
aa(lp185
F2.538798932280182
aF0.2633675175683575
aa(lp186
F2.5506473516555026
aF0.25625704896367957
aa(lp187
F2.56170241664171
aF0.24804632323206285
aa(lp188
F2.571888824156052
aF0.2388118109459159
aa(lp189
F2.5811312711157743
aF0.22862998267764695
aa(lp190
F2.589354454438124
aF0.21757730899966468
aa(lp191
F2.596483071040348
aF0.20573026048437748
aa(lp192
F2.602441817839692
aF0.19316530770419385
aa(lp193
F2.607027688421405
aF0.18038057039192776
aa(lp194
F2.6103765316985132
aF0.16706338575029248
aa(lp195
F2.6124198859358394
aF0.1532832769367166
aa(lp196
F2.6130898422904294
aF0.1395724058201027
aa(lp197
F2.612428465033846
aF0.12583577161981047
aa(lp198
F2.6103874315241415
aF0.11204511865886528
aa(lp199
F2.6070347180012345
aF0.09873223533248852
aa(lp200
F2.6024392519225503
aF0.08596498045535529
aa(lp201
F2.596669960745516
aF0.07381121284214104
aa(lp202
F2.5895564055062126
aF0.0619808224955289
aa(lp203
F2.5813413345142138
aF0.050951084948694374
aa(lp204
F2.5721005631139153
aF0.04079664011433857
aa(lp205
F2.5619099066497153
aF0.031592127905162734
aa(lp206
F2.5508451804660113
aF0.02341218823386788
aa(lp207
F2.5389821999072
aF0.016331461013155246
aa(lp208
F2.5268002569266965
aF0.01059066628848457
aa(lp209
F2.5140092493054627
aF0.0060193633092658775
aa(lp210
F2.5006781045009245
aF0.00268541089017443
aa(lp211
F2.486875749970508
aF0.0006566678458855019
aa(lp212
F2.4731348292411637
aF1.7225611279496467e-08
aa(lp213
F2.45938603112284
aF0.0006714744704790617
aa(lp214
F2.4455845582316416
aF0.0027178504136758657
aa(lp215
F2.4322627109229256
aF0.0060715782801260415
aa(lp216
F2.4194885789457103
aF0.010664568320812315
aa(lp217
F2.4073302520490123
aF0.01642873078671731
aa(lp218
F2.395497831353558
aF0.023535097590845516
aa(lp219
F2.3844690333080507
aF0.03174196762002625
aa(lp220
F2.374318751836688
aF0.040974446950060896
aa(lp221
F2.3651218808636694
aF0.051157641656750935
aa(lp222
F2.3569533143131927
aF0.06221665781589772
aa(lp223
F2.349887946109457
aF0.07407660150330285
aa(lp224
F2.3441660711415184
aF0.0862590211946167
aa(lp225
F2.3396178979073365
aF0.09905471665791062
aa(lp226
F2.336311516155928
aF0.1123955981441673
aa(lp227
F2.334358276179868
aF0.12576108491643734
aa(lp228
F2.333693482700751
aF0.13951167332408734
aaa(lp229
(lp230
F2.539976785770859
aF0.13988469918859026
aa(lp231
F2.5386905554909927
aF0.15301820388839896
aa(lp232
F2.5349169273572505
aF0.16546701581917841
aa(lp233
F2.5286865042477125
aF0.17709281490988416
aa(lp234
F2.5203656308247147
aF0.18719290943965305
aa(lp235
F2.51023895137988
aF0.1954826551168615
aa(lp236
F2.4987833581538164
aF0.201598173995735
aa(lp237
F2.486334188566306
aF0.20537098736529436
aa(lp238
F2.473200452394848
aF0.20665632876992873
aa(lp239
F2.460147797967211
aF0.20536122550689576
aa(lp240
F2.4477577156235695
aF0.20156392433838485
aa(lp241
F2.436344939945602
aF0.1954109918317927
aa(lp242
F2.42625121543113
aF0.1870729383163671
aa(lp243
F2.4179600395449663
aF0.17691683641563244
aa(lp244
F2.411842690538003
aF0.16542294291772558
aa(lp245
F2.4080745644262502
aF0.1529295470312025
aa(lp246
F2.406806605458542
aF0.13997019105947953
aa(lp247
F2.408085988252807
aF0.1268869666612467
aa(lp248
F2.4118684592317865
aF0.11444052241054645
aa(lp249
F2.4180024916248852
aF0.10295296972143043
aa(lp250
F2.426312130249909
aF0.09277509574873272
aa(lp251
F2.4364251714147067
aF0.08440158661150156
aa(lp252
F2.447857139052216
aF0.0782147961453272
aa(lp253
F2.4602656506950766
aF0.07439899541427063
aa(lp254
F2.4731156099367224
aF0.07311312987957005
aa(lp255
F2.4860541655372947
aF0.07435736920951172
aa(lp256
F2.498534856100857
aF0.07811892652072058
aa(lp257
F2.5101974306859276
aF0.08435587741742229
aa(lp258
F2.5203375783695643
aF0.09268803059491207
aa(lp259
F2.528669995730064
aF0.10281605131566415
aa(lp260
F2.534909379345722
aF0.1144406048421528
aa(lp261
F2.5386886023675412
aF0.12684652848220923
aa(lp262
F2.539976785770859
aF0.13988469918859026
aaa(lp263
(lp264
F2.9364100103483244
aF0.0
aa(lp265
F2.8520054268637747
aF0.0
aa(lp266
F2.808513900183033
aF0.07414334953192374
aa(lp267
F2.8080022240653024
aF0.07423214703607856
aa(lp268
F2.7629864462068756
aF0.07423214703607856
aa(lp269
F2.7629425597765507
aF0.0
aa(lp270
F2.6894668880473995
aF0.00023766451402249883
aa(lp271
F2.6895956741297162
aF0.2797693983771805
aa(lp272
F2.8071993937848556
aF0.2797693983771805
aa(lp273
F2.8217371439546906
aF0.2787630444717996
aa(lp274
F2.8362103001876777
aF0.27563825963048455
aa(lp275
F2.8498595459123726
aF0.27055160587137594
aa(lp276
F2.8625256672791974
aF0.26366229704405214
aa(lp277
F2.8744676994259306
aF0.25477070457685386
aa(lp278
F2.884999531038682
aF0.24428512151698534
aa(lp279
F2.8939428618101437
aF0.23238384817175567
aa(lp280
F2.9008871812386934
aF0.21975178749073962
aa(lp281
F2.906504896673468
aF0.20450357501948124
aa(lp282
F2.909599696433835
aF0.18882182589240143
aa(lp283
F2.9102273588834064
aF0.17301112791310796
aa(lp284
F2.9083220160743837
aF0.1568755188437356
aa(lp285
F2.903990583163273
aF0.14160694725641473
aa(lp286
F2.8971925560228255
aF0.1269221014027306
aa(lp287
F2.8882950273139105
aF0.11360743348311525
aa(lp288
F2.877153725825368
aF0.1015138382458371
aa(lp289
F2.9364100103483244
aF0.0
aaa(lp290
(lp291
F2.7629529833544724
aF0.21784710486969788
aa(lp292
F2.7629740705336436
aF0.1376465440015728
aa(lp293
F2.811034033454285
aF0.13772423554921526
aa(lp294
F2.818592794869575
aF0.1388868663063585
aa(lp295
F2.825869681632488
aF0.14147048544700142
aa(lp296
F2.830848252365116
aF0.14424461056045387
aa(lp297
F2.8353464852674457
aF0.1476698450603372
aa(lp298
F2.839301663354155
aF0.15168695623829062
aa(lp299
F2.842651069639921
aF0.1562367113859535
aa(lp300
F2.845272111882876
aF0.1611256518633863
aa(lp301
F2.847200492062983
aF0.16640924517415992
aa(lp302
F2.848357309149453
aF0.17188082116688475
aa(lp303
F2.8487488842300044
aF0.17762375251193693
aa(lp304
F2.8483432539163918
aF0.18334781677887008
aa(lp305
F2.8471378073100913
aF0.18895913494980462
aa(lp306
F2.845189824353703
aF0.19424260157264986
aa(lp307
F2.8424786187389364
aF0.19926405605485192
aa(lp308
F2.839107661977216
aF0.20381779631480657
aa(lp309
F2.835138938888477
aF0.20784183753257846
aa(lp310
F2.8306344342926546
aF0.21127419488823196
aa(lp311
F2.8256561330096845
aF0.21405288356183183
aa(lp312
F2.818534266333761
aF0.21659712860570093
aa(lp313
F2.8110020812070444
aF0.21776975309717128
aa(lp314
F2.7629529833544724
aF0.21784710486969788
aaa(lp315
(lp316
F2.9931099417527665
aF0.0
aa(lp317
F2.9931099417527665
aF0.27964704589362355
aa(lp318
F3.0665311305594156
aF0.2797693983771805
aa(lp319
F3.066724357957228
aF0.07385912117157566
aa(lp320
F3.1673130204756244
aF0.07366589377376309
aa(lp321
F3.1673130204756244
aF0.00012235248355679568
aa(lp322
F2.9931099417527665
aF0.0
aaa(lp323
(lp324
F3.240892372248823
aF0.0
aa(lp325
F3.2409741692911296
aF0.2797693983771805
aa(lp326
F3.345744840214699
aF0.27976475178952465
aa(lp327
F3.3597057263270305
aF0.27896135158441754
aa(lp328
F3.3737286765641636
aF0.27672674508297557
aa(lp329
F3.3876942771294964
aF0.2729949716497198
aa(lp330
F3.401046732476526
aF0.2678969564433276
aa(lp331
F3.4141012991091193
aF0.2612869085746687
aa(lp332
F3.429244824660406
aF0.25123304056500806
aa(lp333
F3.443243106019965
aF0.23903149991372633
aa(lp334
F3.45551372754718
aF0.22509523664670303
aa(lp335
F3.465641798023012
aF0.21000541006189755
aa(lp336
F3.473774701020467
aF0.19361520549625547
aa(lp337
F3.4797392237107925
aF0.17609783577853094
aa(lp338
F3.4833015079550207
aF0.15809853332013946
aa(lp339
F3.4844782552569824
aF0.1398415864032601
aa(lp340
F3.483290638497632
aF0.12158758478530755
aa(lp341
F3.479717916175885
aF0.1035920256558233
aa(lp342
F3.4737434426913008
aF0.08607925017607117
aa(lp343
F3.4656013533818877
aF0.06969440433070292
aa(lp344
F3.4554648610763996
aF0.05461070094847278
aa(lp345
F3.4431864005630755
aF0.040681507353377534
aa(lp346
F3.4291810834016254
aF0.02848783955824176
aa(lp347
F3.414031467691702
aF0.01844242642217592
aa(lp348
F3.400972579359456
aF0.011839692879649732
aa(lp349
F3.387616403938993
aF0.006749229999803131
aa(lp350
F3.3736475424674084
aF0.0030254680602753627
aa(lp351
F3.3596218737028645
aF0.0007990518055960613
aa(lp352
F3.345658768439833
aF3.977598156553365e-06
aa(lp353
F3.240892372248823
aF0.0
aaa(lp354
(lp355
F3.3140054416913927
aF0.20553725134110193
aa(lp356
F3.3140184802672525
aF0.07311306944256984
aa(lp357
F3.3464948669509784
aF0.07313048269925561
aa(lp358
F3.355999577454049
aF0.07403352874161583
aa(lp359
F3.362948471094657
aF0.07559629918048695
aa(lp360
F3.369605555582109
aF0.07786853830279615
aa(lp361
F3.376103331563353
aF0.08090078605145727
aa(lp362
F3.382200531259794
aF0.08459176859794924
aa(lp363
F3.3885973187591905
aF0.08953836013331115
aa(lp364
F3.3944768325999854
aF0.09535698269858417
aa(lp365
F3.399488890998926
aF0.10170035409506453
aa(lp366
F3.4037128879525342
aF0.10862966244891725
aa(lp367
F3.407008632164788
aF0.11588887370982315
aa(lp368
F3.4094249161604844
aF0.12357641621421286
aa(lp369
F3.410873038774461
aF0.13142317383928573
aa(lp370
F3.411365176827836
aF0.13955683788104434
aa(lp371
F3.410859023776347
aF0.1476350753941888
aa(lp372
F3.409391669130582
aF0.1554352068342593
aa(lp373
F3.406950831628059
aF0.1630828091405667
aa(lp374
F3.4036262481566935
aF0.17030842619545242
aa(lp375
F3.3993688802251794
aF0.1772081607754638
aa(lp376
F3.394320243329958
aF0.18352511728420143
aa(lp377
F3.388549792809759
aF0.18918872013553628
aa(lp378
F3.382126984003313
aF0.19412839374333937
aa(lp379
F3.376004507799269
aF0.19781295702889035
aa(lp380
F3.3696659109416536
aF0.20076253863601967
aa(lp381
F3.362990182840252
aF0.20304407542845831
aa(lp382
F3.356020530901342
aF0.20461366310627924
aa(lp383
F3.346486007242713
aF0.2055200405634687
aa(lp384
F3.3140054416913927
aF0.20553725134110193
aaa(lp385
(lp386
F3.5102170399076833
aF0.02946904329572968
aa(lp387
F3.510779431101345
aF0.03530884993241073
aa(lp388
F3.5124664062998385
aF0.040942072612253966
aa(lp389
F3.5152134341457333
aF0.04612389589523025
aa(lp390
F3.5188814416907213
aF0.050630949599185585
aa(lp391
F3.5233493668130174
aF0.05433285913142893
aa(lp392
F3.528496147390838
aF0.057099249899269164
aa(lp393
F3.5340152127740065
aF0.05876403596621754
aa(lp394
F3.539750959341983
aF0.059311042505112446
aa(lp395
F3.545571738408196
aF0.05872112518828545
aa(lp396
F3.5510731867955774
aF0.05701674857601904
aa(lp397
F3.556122331965409
aF0.05426543357579657
aa(lp398
F3.5605749646710048
aF0.05054558151541555
aa(lp399
F3.5642251801482376
aF0.04602327721522718
aa(lp400
F3.5669519162753227
aF0.04082889526792252
aa(lp401
F3.5685985558451443
aF0.0352789674569533
aa(lp402
F3.5691551102257435
aF0.02943730634102596
aa(lp403
F3.5685808608402945
aF0.023584301633251783
aa(lp404
F3.5669063261664284
aF0.01805455255356623
aa(lp405
F3.5641928601688084
aF0.012983075402681558
aa(lp406
F3.560512045682651
aF0.008516303454058143
aa(lp407
F3.556022058543072
aF0.0048625143813482525
aa(lp408
F3.550931450324107
aF0.0021793729106069537
aa(lp409
F3.5453864784857276
aF0.0005382860635624138
aa(lp410
F3.539620858678305
aF6.874127276547011e-08
aa(lp411
F3.5338627425872855
aF0.0005621473155314269
aa(lp412
F3.5283279065524153
aF0.002225545416076962
aa(lp413
F3.5232500394716753
aF0.004928916145233019
aa(lp414
F3.5187755160140286
aF0.008600735272278814
aa(lp415
F3.515112705358132
aF0.013082997126910502
aa(lp416
F3.5124194428046023
aF0.018167241230344227
aa(lp417
F3.510767193979664
aF0.023707151518112198
aa(lp418
F3.5102170399076833
aF0.02946904329572968
aaa(lp419
(lp420
F3.5102170399076833
aF0.07460517290058147
aa(lp421
F3.5102603109079653
aF0.2797693983771805
aa(lp422
F3.5691551264991426
aF0.2797693983771805
aa(lp423
F3.56911185549886
aF0.07460517290058147
aa(lp424
F3.5102170399076833
aF0.07460517290058147
aaa.